; ModuleID = 'source-C-CXX/11/1397.cpp'
source_filename = "source-C-CXX/11/1397.cpp"
target datalayout = "e-m:e-p270:32:32-p271:32:32-p272:64:64-i64:64-f80:128-n8:16:32:64-S128"
target triple = "x86_64-pc-linux-gnu"

%"class.std::ios_base::Init" = type { i8 }
%"class.std::basic_istream" = type { i32 (...)**, i64, %"class.std::basic_ios" }
%"class.std::basic_ios" = type { %"class.std::ios_base", %"class.std::basic_ostream"*, i8, i8, %"class.std::basic_streambuf"*, %"class.std::ctype"*, %"class.std::num_put"*, %"class.std::num_get"* }
%"class.std::ios_base" = type { i32 (...)**, i64, i64, i32, i32, i32, %"struct.std::ios_base::_Callback_list"*, %"struct.std::ios_base::_Words", [8 x %"struct.std::ios_base::_Words"], i32, %"struct.std::ios_base::_Words"*, %"class.std::locale" }
%"struct.std::ios_base::_Callback_list" = type { %"struct.std::ios_base::_Callback_list"*, void (i32, %"class.std::ios_base"*, i32)*, i32, i32 }
%"struct.std::ios_base::_Words" = type { i8*, i64 }
%"class.std::locale" = type { %"class.std::locale::_Impl"* }
%"class.std::locale::_Impl" = type { i32, %"class.std::locale::facet"**, i64, %"class.std::locale::facet"**, i8** }
%"class.std::locale::facet" = type <{ i32 (...)**, i32, [4 x i8] }>
%"class.std::basic_ostream" = type { i32 (...)**, %"class.std::basic_ios" }
%"class.std::basic_streambuf" = type { i32 (...)**, i8*, i8*, i8*, i8*, i8*, i8*, %"class.std::locale" }
%"class.std::ctype" = type <{ %"class.std::locale::facet.base", [4 x i8], %struct.__locale_struct*, i8, [7 x i8], i32*, i32*, i16*, i8, [256 x i8], [256 x i8], i8, [6 x i8] }>
%"class.std::locale::facet.base" = type <{ i32 (...)**, i32 }>
%struct.__locale_struct = type { [13 x %struct.__locale_data*], i16*, i32*, i32*, [13 x i8*] }
%struct.__locale_data = type opaque
%"class.std::num_put" = type { %"class.std::locale::facet.base", [4 x i8] }
%"class.std::num_get" = type { %"class.std::locale::facet.base", [4 x i8] }

@_ZStL8__ioinit = internal global %"class.std::ios_base::Init" zeroinitializer, align 1
@__dso_handle = external hidden global i8
@_ZSt3cin = external global %"class.std::basic_istream", align 8
@_ZSt4cout = external global %"class.std::basic_ostream", align 8
@llvm.global_ctors = appending global [1 x { i32, void ()*, i8* }] [{ i32, void ()*, i8* } { i32 65535, void ()* @_GLOBAL__sub_I_1397.cpp, i8* null }]

declare void @_ZNSt8ios_base4InitC1Ev(%"class.std::ios_base::Init"* nonnull align 1 dereferenceable(1)) unnamed_addr #0

; Function Attrs: nounwind
declare void @_ZNSt8ios_base4InitD1Ev(%"class.std::ios_base::Init"* nonnull align 1 dereferenceable(1)) unnamed_addr #1

; Function Attrs: nofree nounwind
declare i32 @__cxa_atexit(void (i8*)*, i8*, i8*) local_unnamed_addr #2

; Function Attrs: mustprogress norecurse sspstrong uwtable
define dso_local i32 @main() local_unnamed_addr #3 {
  %1 = alloca [15 x i32], align 16
  %2 = bitcast [15 x i32]* %1 to i8*
  call void @llvm.lifetime.start.p0i8(i64 60, i8* nonnull %2) #8
  %3 = getelementptr inbounds [15 x i32], [15 x i32]* %1, i64 0, i64 0
  %4 = getelementptr inbounds [15 x i32], [15 x i32]* %1, i64 0, i64 1
  %5 = call nonnull align 8 dereferenceable(16) %"class.std::basic_istream"* @_ZNSirsERi(%"class.std::basic_istream"* nonnull align 8 dereferenceable(16) @_ZSt3cin, i32* nonnull align 4 dereferenceable(4) %3)
  %6 = load i32, i32* %3, align 16, !tbaa !5
  %7 = icmp eq i32 %6, -1
  br i1 %7, label %160, label %8

8:                                                ; preds = %0, %153
  %9 = call nonnull align 8 dereferenceable(16) %"class.std::basic_istream"* @_ZNSirsERi(%"class.std::basic_istream"* nonnull align 8 dereferenceable(16) @_ZSt3cin, i32* nonnull align 4 dereferenceable(4) %4)
  %10 = bitcast %"class.std::basic_istream"* %9 to i8**
  %11 = load i8*, i8** %10, align 8, !tbaa !9
  %12 = getelementptr i8, i8* %11, i64 -24
  %13 = bitcast i8* %12 to i64*
  %14 = load i64, i64* %13, align 8
  %15 = bitcast %"class.std::basic_istream"* %9 to i8*
  %16 = add nsw i64 %14, 32
  %17 = getelementptr inbounds i8, i8* %15, i64 %16
  %18 = bitcast i8* %17 to i32*
  %19 = load i32, i32* %18, align 8, !tbaa !11
  %20 = and i32 %19, 5
  %21 = icmp eq i32 %20, 0
  br i1 %21, label %22, label %125

22:                                               ; preds = %8, %28
  %23 = phi i64 [ %29, %28 ], [ 1, %8 ]
  %24 = phi i32* [ %31, %28 ], [ %4, %8 ]
  %25 = phi i32 [ %30, %28 ], [ 1, %8 ]
  %26 = load i32, i32* %24, align 4, !tbaa !5
  %27 = icmp eq i32 %26, 0
  br i1 %27, label %45, label %28

28:                                               ; preds = %22
  %29 = add nuw i64 %23, 1
  %30 = add nuw nsw i32 %25, 1
  %31 = getelementptr inbounds [15 x i32], [15 x i32]* %1, i64 0, i64 %29
  %32 = call nonnull align 8 dereferenceable(16) %"class.std::basic_istream"* @_ZNSirsERi(%"class.std::basic_istream"* nonnull align 8 dereferenceable(16) @_ZSt3cin, i32* nonnull align 4 dereferenceable(4) %31)
  %33 = bitcast %"class.std::basic_istream"* %32 to i8**
  %34 = load i8*, i8** %33, align 8, !tbaa !9
  %35 = getelementptr i8, i8* %34, i64 -24
  %36 = bitcast i8* %35 to i64*
  %37 = load i64, i64* %36, align 8
  %38 = bitcast %"class.std::basic_istream"* %32 to i8*
  %39 = add nsw i64 %37, 32
  %40 = getelementptr inbounds i8, i8* %38, i64 %39
  %41 = bitcast i8* %40 to i32*
  %42 = load i32, i32* %41, align 8, !tbaa !11
  %43 = and i32 %42, 5
  %44 = icmp eq i32 %43, 0
  br i1 %44, label %22, label %48, !llvm.loop !19

45:                                               ; preds = %22
  %46 = trunc i64 %23 to i32
  %47 = icmp sgt i32 %46, 1
  br i1 %47, label %48, label %125

48:                                               ; preds = %28, %45
  %49 = phi i32 [ %46, %45 ], [ %30, %28 ]
  %50 = add i32 %49, -1
  %51 = zext i32 %50 to i64
  %52 = zext i32 %49 to i64
  br label %57

53:                                               ; preds = %112, %105
  %54 = phi i32 [ %107, %105 ], [ %122, %112 ]
  %55 = add nuw nsw i64 %59, 1
  %56 = icmp eq i64 %63, %51
  br i1 %56, label %125, label %57, !llvm.loop !21

57:                                               ; preds = %53, %48
  %58 = phi i64 [ 0, %48 ], [ %63, %53 ]
  %59 = phi i64 [ 1, %48 ], [ %55, %53 ]
  %60 = phi i32 [ 0, %48 ], [ %54, %53 ]
  %61 = xor i64 %58, -1
  %62 = add nsw i64 %61, %52
  %63 = add nuw nsw i64 %58, 1
  %64 = getelementptr inbounds [15 x i32], [15 x i32]* %1, i64 0, i64 %58
  %65 = load i32, i32* %64, align 4, !tbaa !5
  %66 = shl nsw i32 %65, 1
  %67 = icmp ult i64 %62, 8
  br i1 %67, label %109, label %68

68:                                               ; preds = %57
  %69 = and i64 %62, -8
  %70 = add i64 %59, %69
  %71 = insertelement <4 x i32> <i32 poison, i32 0, i32 0, i32 0>, i32 %60, i32 0
  %72 = insertelement <4 x i32> poison, i32 %65, i32 0
  %73 = shufflevector <4 x i32> %72, <4 x i32> poison, <4 x i32> zeroinitializer
  %74 = insertelement <4 x i32> poison, i32 %65, i32 0
  %75 = shufflevector <4 x i32> %74, <4 x i32> poison, <4 x i32> zeroinitializer
  %76 = insertelement <4 x i32> poison, i32 %66, i32 0
  %77 = shufflevector <4 x i32> %76, <4 x i32> poison, <4 x i32> zeroinitializer
  %78 = insertelement <4 x i32> poison, i32 %66, i32 0
  %79 = shufflevector <4 x i32> %78, <4 x i32> poison, <4 x i32> zeroinitializer
  br label %80

80:                                               ; preds = %80, %68
  %81 = phi i64 [ 0, %68 ], [ %103, %80 ]
  %82 = phi <4 x i32> [ %71, %68 ], [ %101, %80 ]
  %83 = phi <4 x i32> [ zeroinitializer, %68 ], [ %102, %80 ]
  %84 = add i64 %59, %81
  %85 = getelementptr inbounds [15 x i32], [15 x i32]* %1, i64 0, i64 %84
  %86 = bitcast i32* %85 to <4 x i32>*
  %87 = load <4 x i32>, <4 x i32>* %86, align 4, !tbaa !5
  %88 = getelementptr inbounds i32, i32* %85, i64 4
  %89 = bitcast i32* %88 to <4 x i32>*
  %90 = load <4 x i32>, <4 x i32>* %89, align 4, !tbaa !5
  %91 = shl nsw <4 x i32> %87, <i32 1, i32 1, i32 1, i32 1>
  %92 = shl nsw <4 x i32> %90, <i32 1, i32 1, i32 1, i32 1>
  %93 = icmp eq <4 x i32> %73, %91
  %94 = icmp eq <4 x i32> %75, %92
  %95 = icmp eq <4 x i32> %87, %77
  %96 = icmp eq <4 x i32> %90, %79
  %97 = select <4 x i1> %93, <4 x i1> <i1 true, i1 true, i1 true, i1 true>, <4 x i1> %95
  %98 = select <4 x i1> %94, <4 x i1> <i1 true, i1 true, i1 true, i1 true>, <4 x i1> %96
  %99 = zext <4 x i1> %97 to <4 x i32>
  %100 = zext <4 x i1> %98 to <4 x i32>
  %101 = add <4 x i32> %82, %99
  %102 = add <4 x i32> %83, %100
  %103 = add nuw i64 %81, 8
  %104 = icmp eq i64 %103, %69
  br i1 %104, label %105, label %80, !llvm.loop !22

105:                                              ; preds = %80
  %106 = add <4 x i32> %102, %101
  %107 = call i32 @llvm.vector.reduce.add.v4i32(<4 x i32> %106)
  %108 = icmp eq i64 %62, %69
  br i1 %108, label %53, label %109

109:                                              ; preds = %57, %105
  %110 = phi i64 [ %59, %57 ], [ %70, %105 ]
  %111 = phi i32 [ %60, %57 ], [ %107, %105 ]
  br label %112

112:                                              ; preds = %109, %112
  %113 = phi i64 [ %123, %112 ], [ %110, %109 ]
  %114 = phi i32 [ %122, %112 ], [ %111, %109 ]
  %115 = getelementptr inbounds [15 x i32], [15 x i32]* %1, i64 0, i64 %113
  %116 = load i32, i32* %115, align 4, !tbaa !5
  %117 = shl nsw i32 %116, 1
  %118 = icmp eq i32 %65, %117
  %119 = icmp eq i32 %116, %66
  %120 = select i1 %118, i1 true, i1 %119
  %121 = zext i1 %120 to i32
  %122 = add nsw i32 %114, %121
  %123 = add nuw nsw i64 %113, 1
  %124 = icmp eq i64 %123, %52
  br i1 %124, label %53, label %112, !llvm.loop !24

125:                                              ; preds = %53, %8, %45
  %126 = phi i32 [ 0, %45 ], [ 0, %8 ], [ %54, %53 ]
  %127 = call nonnull align 8 dereferenceable(8) %"class.std::basic_ostream"* @_ZNSolsEi(%"class.std::basic_ostream"* nonnull align 8 dereferenceable(8) @_ZSt4cout, i32 %126)
  %128 = bitcast %"class.std::basic_ostream"* %127 to i8**
  %129 = load i8*, i8** %128, align 8, !tbaa !9
  %130 = getelementptr i8, i8* %129, i64 -24
  %131 = bitcast i8* %130 to i64*
  %132 = load i64, i64* %131, align 8
  %133 = bitcast %"class.std::basic_ostream"* %127 to i8*
  %134 = add nsw i64 %132, 240
  %135 = getelementptr inbounds i8, i8* %133, i64 %134
  %136 = bitcast i8* %135 to %"class.std::ctype"**
  %137 = load %"class.std::ctype"*, %"class.std::ctype"** %136, align 8, !tbaa !26
  %138 = icmp eq %"class.std::ctype"* %137, null
  br i1 %138, label %139, label %140

139:                                              ; preds = %125
  call void @_ZSt16__throw_bad_castv() #9
  unreachable

140:                                              ; preds = %125
  %141 = getelementptr inbounds %"class.std::ctype", %"class.std::ctype"* %137, i64 0, i32 8
  %142 = load i8, i8* %141, align 8, !tbaa !29
  %143 = icmp eq i8 %142, 0
  br i1 %143, label %147, label %144

144:                                              ; preds = %140
  %145 = getelementptr inbounds %"class.std::ctype", %"class.std::ctype"* %137, i64 0, i32 9, i64 10
  %146 = load i8, i8* %145, align 1, !tbaa !31
  br label %153

147:                                              ; preds = %140
  call void @_ZNKSt5ctypeIcE13_M_widen_initEv(%"class.std::ctype"* nonnull align 8 dereferenceable(570) %137)
  %148 = bitcast %"class.std::ctype"* %137 to i8 (%"class.std::ctype"*, i8)***
  %149 = load i8 (%"class.std::ctype"*, i8)**, i8 (%"class.std::ctype"*, i8)*** %148, align 8, !tbaa !9
  %150 = getelementptr inbounds i8 (%"class.std::ctype"*, i8)*, i8 (%"class.std::ctype"*, i8)** %149, i64 6
  %151 = load i8 (%"class.std::ctype"*, i8)*, i8 (%"class.std::ctype"*, i8)** %150, align 8
  %152 = call signext i8 %151(%"class.std::ctype"* nonnull align 8 dereferenceable(570) %137, i8 signext 10)
  br label %153

153:                                              ; preds = %144, %147
  %154 = phi i8 [ %146, %144 ], [ %152, %147 ]
  %155 = call nonnull align 8 dereferenceable(8) %"class.std::basic_ostream"* @_ZNSo3putEc(%"class.std::basic_ostream"* nonnull align 8 dereferenceable(8) %127, i8 signext %154)
  %156 = call nonnull align 8 dereferenceable(8) %"class.std::basic_ostream"* @_ZNSo5flushEv(%"class.std::basic_ostream"* nonnull align 8 dereferenceable(8) %155)
  %157 = call nonnull align 8 dereferenceable(16) %"class.std::basic_istream"* @_ZNSirsERi(%"class.std::basic_istream"* nonnull align 8 dereferenceable(16) @_ZSt3cin, i32* nonnull align 4 dereferenceable(4) %3)
  %158 = load i32, i32* %3, align 16, !tbaa !5
  %159 = icmp eq i32 %158, -1
  br i1 %159, label %160, label %8, !llvm.loop !32

160:                                              ; preds = %153, %0
  call void @llvm.lifetime.end.p0i8(i64 60, i8* nonnull %2) #8
  ret i32 0
}

; Function Attrs: argmemonly mustprogress nofree nosync nounwind willreturn
declare void @llvm.lifetime.start.p0i8(i64 immarg, i8* nocapture) #4

declare nonnull align 8 dereferenceable(16) %"class.std::basic_istream"* @_ZNSirsERi(%"class.std::basic_istream"* nonnull align 8 dereferenceable(16), i32* nonnull align 4 dereferenceable(4)) local_unnamed_addr #0

declare nonnull align 8 dereferenceable(8) %"class.std::basic_ostream"* @_ZNSolsEi(%"class.std::basic_ostream"* nonnull align 8 dereferenceable(8), i32) local_unnamed_addr #0

; Function Attrs: argmemonly mustprogress nofree nosync nounwind willreturn
declare void @llvm.lifetime.end.p0i8(i64 immarg, i8* nocapture) #4

declare nonnull align 8 dereferenceable(8) %"class.std::basic_ostream"* @_ZNSo3putEc(%"class.std::basic_ostream"* nonnull align 8 dereferenceable(8), i8 signext) local_unnamed_addr #0

declare nonnull align 8 dereferenceable(8) %"class.std::basic_ostream"* @_ZNSo5flushEv(%"class.std::basic_ostream"* nonnull align 8 dereferenceable(8)) local_unnamed_addr #0

; Function Attrs: noreturn
declare void @_ZSt16__throw_bad_castv() local_unnamed_addr #5

declare void @_ZNKSt5ctypeIcE13_M_widen_initEv(%"class.std::ctype"* nonnull align 8 dereferenceable(570)) local_unnamed_addr #0

; Function Attrs: sspstrong uwtable
define internal void @_GLOBAL__sub_I_1397.cpp() #6 section ".text.startup" {
  tail call void @_ZNSt8ios_base4InitC1Ev(%"class.std::ios_base::Init"* nonnull align 1 dereferenceable(1) @_ZStL8__ioinit)
  %1 = tail call i32 @__cxa_atexit(void (i8*)* bitcast (void (%"class.std::ios_base::Init"*)* @_ZNSt8ios_base4InitD1Ev to void (i8*)*), i8* getelementptr inbounds (%"class.std::ios_base::Init", %"class.std::ios_base::Init"* @_ZStL8__ioinit, i64 0, i32 0), i8* nonnull @__dso_handle) #8
  ret void
}

; Function Attrs: nofree nosync nounwind readnone willreturn
declare i32 @llvm.vector.reduce.add.v4i32(<4 x i32>) #7


!llvm.module.flags = !{!0, !1, !2, !3}
!llvm.ident = !{!4}

!0 = !{i32 1, !"wchar_size", i32 4}
!1 = !{i32 7, !"PIC Level", i32 2}
!2 = !{i32 7, !"PIE Level", i32 2}
!3 = !{i32 7, !"uwtable", i32 1}
!4 = !{!"clang version 13.0.0"}
!5 = !{!6, !6, i64 0}
!6 = !{!"int", !7, i64 0}
!7 = !{!"omnipotent char", !8, i64 0}
!8 = !{!"Simple C++ TBAA"}
!9 = !{!10, !10, i64 0}
!10 = !{!"vtable pointer", !8, i64 0}
!11 = !{!12, !15, i64 32}
!12 = !{!"_ZTSSt8ios_base", !13, i64 8, !13, i64 16, !14, i64 24, !15, i64 28, !15, i64 32, !16, i64 40, !17, i64 48, !7, i64 64, !6, i64 192, !16, i64 200, !18, i64 208}
!13 = !{!"long", !7, i64 0}
!14 = !{!"_ZTSSt13_Ios_Fmtflags", !7, i64 0}
!15 = !{!"_ZTSSt12_Ios_Iostate", !7, i64 0}
!16 = !{!"any pointer", !7, i64 0}
!17 = !{!"_ZTSNSt8ios_base6_WordsE", !16, i64 0, !13, i64 8}
!18 = !{!"_ZTSSt6locale", !16, i64 0}
!19 = distinct !{!19, !20}
!20 = !{!"llvm.loop.mustprogress"}
!21 = distinct !{!21, !20}
!22 = distinct !{!22, !20, !23}
!23 = !{!"llvm.loop.isvectorized", i32 1}
!24 = distinct !{!24, !20, !25, !23}
!25 = !{!"llvm.loop.unroll.runtime.disable"}
!26 = !{!27, !16, i64 240}
!27 = !{!"_ZTSSt9basic_iosIcSt11char_traitsIcEE", !16, i64 216, !7, i64 224, !28, i64 225, !16, i64 232, !16, i64 240, !16, i64 248, !16, i64 256}
!28 = !{!"bool", !7, i64 0}
!29 = !{!30, !7, i64 56}
!30 = !{!"_ZTSSt5ctypeIcE", !16, i64 16, !28, i64 24, !16, i64 32, !16, i64 40, !16, i64 48, !7, i64 56, !7, i64 57, !7, i64 313, !7, i64 569}
!31 = !{!7, !7, i64 0}
!32 = distinct !{!32, !20}
